; Function Attrs: nounwind uwtable
define internal fastcc ptr @make_case(ptr noundef %0, ptr noundef %1, ptr noundef %2) unnamed_addr #0 {
  br label %4

4:                                                ; preds = %8, %3
  %indvars.iv.i = phi i64 [ 0, %3 ], [ %indvars.iv.next.i, %8 ]
  %5 = phi ptr [ @.str.3, %3 ], [ %10, %8 ]
  %6 = tail call i32 @pg_strcasecmp(ptr noundef nonnull @.str.42, ptr noundef nonnull %5) #9
  %7 = icmp eq i32 %6, 0
  br i1 %7, label %find_func.exit, label %8

8:                                                ; preds = %4
  %indvars.iv.next.i = add nuw nsw i64 %indvars.iv.i, 1
  %9 = getelementptr inbounds nuw [40 x %struct.anon.2], ptr @PGBENCH_FUNCTIONS, i64 0, i64 %indvars.iv.next.i
  %10 = load ptr, ptr %9, align 16
  %exitcond.i = icmp eq i64 %indvars.iv.next.i, 39
  br i1 %exitcond.i, label %11, label %4, !llvm.loop !4

11:                                               ; preds = %8
  tail call void @expr_yyerror_more(ptr noundef %0, ptr noundef nonnull @.str.25, ptr noundef nonnull @.str.42) #11
  unreachable

find_func.exit:                                   ; preds = %4
  %12 = icmp eq ptr %1, null
  br i1 %12, label %13, label %15

13:                                               ; preds = %find_func.exit
  %14 = tail call ptr @pg_malloc(i64 noundef 16) #9
  tail call void @llvm.memset.p0.i64(ptr noundef nonnull align 8 dereferenceable(16) %14, i8 0, i64 16, i1 false)
  br label %15

15:                                               ; preds = %13, %find_func.exit
  %.0.i = phi ptr [ %14, %13 ], [ %1, %find_func.exit ]
  %16 = tail call ptr @pg_malloc(i64 noundef 16) #9
  store ptr %2, ptr %16, align 8
  %17 = getelementptr inbounds nuw i8, ptr %16, i64 8
  store ptr null, ptr %17, align 8
  %18 = load ptr, ptr %.0.i, align 8
  %19 = icmp eq ptr %18, null
  br i1 %19, label %20, label %21

20:                                               ; preds = %15
  store ptr %16, ptr %.0.i, align 8
  br label %make_elist.exit

21:                                               ; preds = %15
  %22 = getelementptr inbounds nuw i8, ptr %.0.i, i64 8
  %23 = load ptr, ptr %22, align 8
  %24 = getelementptr inbounds nuw i8, ptr %23, i64 8
  store ptr %16, ptr %24, align 8
  br label %make_elist.exit

make_elist.exit:                                  ; preds = %20, %21
  %25 = trunc nuw nsw i64 %indvars.iv.i to i32
  %26 = getelementptr inbounds nuw i8, ptr %.0.i, i64 8
  store ptr %16, ptr %26, align 8
  %27 = tail call fastcc ptr @make_func(ptr noundef %0, i32 noundef %25, ptr noundef nonnull %.0.i)
  ret ptr %27
}